   1               		.file	"uart.c"
   2               	__SP_H__ = 0x3e
   3               	__SP_L__ = 0x3d
   4               	__SREG__ = 0x3f
   5               	__RAMPZ__ = 0x3b
   6               	__CCP__ = 0x34
   7               	__tmp_reg__ = 0
   8               	__zero_reg__ = 1
   9               		.text
  10               	.Ltext0:
  11               		.cfi_sections	.debug_frame
  12               		.file 1 ".././hal//xmega/uart.c"
  13               	.global	init_uart0
  15               	init_uart0:
  16               	.LFB72:
   1:.././hal//xmega/uart.c **** #include "uart.h"
   2:.././hal//xmega/uart.c **** 
   3:.././hal//xmega/uart.c **** /*! Define that selects the Usart used in example. */
   4:.././hal//xmega/uart.c **** #define USART USARTC0
   5:.././hal//xmega/uart.c **** 
   6:.././hal//xmega/uart.c **** #define TIMEOUT 0
   7:.././hal//xmega/uart.c **** #define BYTE_REC 1
   8:.././hal//xmega/uart.c **** 
   9:.././hal//xmega/uart.c **** void												init_uart0
  10:.././hal//xmega/uart.c **** 	(
  11:.././hal//xmega/uart.c ****    void
  12:.././hal//xmega/uart.c ****    )
  13:.././hal//xmega/uart.c ****    {
  17               		.loc 1 13 4 view -0
  18               		.cfi_startproc
  19               	/* prologue: function */
  20               	/* frame size = 0 */
  21               	/* stack size = 0 */
  22               	.L__stack_usage = 0
  14:.././hal//xmega/uart.c **** /* This PORT setting is only valid to USARTC0 if other USARTs is used a
  15:.././hal//xmega/uart.c **** 	 * different PORT and/or pins is used. */
  16:.././hal//xmega/uart.c **** 	/* PIN3 (TXD0) as output. */
  17:.././hal//xmega/uart.c **** 	PORTC.DIRSET = PIN3_bm;
  23               		.loc 1 17 2 view .LVU1
  24               		.loc 1 17 15 is_stmt 0 view .LVU2
  25 0000 E0E4      		ldi r30,lo8(64)
  26 0002 F6E0      		ldi r31,lo8(6)
  27 0004 88E0      		ldi r24,lo8(8)
  28 0006 8183      		std Z+1,r24
  18:.././hal//xmega/uart.c **** 
  19:.././hal//xmega/uart.c **** 	/* PC2 (RXD0) as input. */
  20:.././hal//xmega/uart.c **** 	PORTC.DIRCLR = PIN2_bm;
  29               		.loc 1 20 2 is_stmt 1 view .LVU3
  30               		.loc 1 20 15 is_stmt 0 view .LVU4
  31 0008 84E0      		ldi r24,lo8(4)
  32 000a 8283      		std Z+2,r24
  21:.././hal//xmega/uart.c **** 
  22:.././hal//xmega/uart.c **** 	/* USARTC0, 8 Data bits, No Parity, 1 Stop bit. */
  23:.././hal//xmega/uart.c **** 	USART_Format_Set(&USART, USART_CHSIZE_8BIT_gc, USART_PMODE_DISABLED_gc, false);
  33               		.loc 1 23 2 is_stmt 1 view .LVU5
  34 000c E0EA      		ldi r30,lo8(-96)
  35 000e F8E0      		ldi r31,lo8(8)
  36 0010 83E0      		ldi r24,lo8(3)
  37 0012 8583      		std Z+5,r24
  24:.././hal//xmega/uart.c **** 
  25:.././hal//xmega/uart.c **** 	/* Set Baudrate to 9600 bps:
  26:.././hal//xmega/uart.c **** 	 * Use the default I/O clock fequency that is 2 MHz.
  27:.././hal//xmega/uart.c **** 	 * Do not use the baudrate scale factor
  28:.././hal//xmega/uart.c **** 	 *
  29:.././hal//xmega/uart.c **** 	 * Baudrate select = (1/(16*(((I/O clock frequency)/Baudrate)-1)
  30:.././hal//xmega/uart.c **** 	 *                 = 12
  31:.././hal//xmega/uart.c **** 	 */
  32:.././hal//xmega/uart.c **** 	#if SS_VER==SS_VER_2_1
  33:.././hal//xmega/uart.c **** 	USART_Baudrate_Set(&USART, 1, 0);
  38               		.loc 1 33 2 view .LVU6
  39 0014 81E0      		ldi r24,lo8(1)
  40 0016 8683      		std Z+6,r24
  41               		.loc 1 33 2 view .LVU7
  42 0018 1782      		std Z+7,__zero_reg__
  34:.././hal//xmega/uart.c **** 	#else
  35:.././hal//xmega/uart.c **** 	USART_Baudrate_Set(&USART, 11, 0);
  36:.././hal//xmega/uart.c **** 	#endif
  37:.././hal//xmega/uart.c **** 
  38:.././hal//xmega/uart.c **** 	/* Enable both RX and TX. */
  39:.././hal//xmega/uart.c **** 	USART_Rx_Enable(&USART);
  43               		.loc 1 39 2 view .LVU8
  44 001a 8481      		ldd r24,Z+4
  45 001c 8061      		ori r24,lo8(16)
  46 001e 8483      		std Z+4,r24
  40:.././hal//xmega/uart.c **** 	USART_Tx_Enable(&USART);
  47               		.loc 1 40 2 view .LVU9
  48 0020 8481      		ldd r24,Z+4
  49 0022 8860      		ori r24,lo8(8)
  50 0024 8483      		std Z+4,r24
  51               	/* epilogue start */
  41:.././hal//xmega/uart.c ****    }
  52               		.loc 1 41 4 is_stmt 0 view .LVU10
  53 0026 0895      		ret
  54               		.cfi_endproc
  55               	.LFE72:
  57               	.global	input_ch_w_timeout_0
  59               	input_ch_w_timeout_0:
  60               	.LVL0:
  61               	.LFB73:
  42:.././hal//xmega/uart.c **** 
  43:.././hal//xmega/uart.c **** unsigned char									input_ch_w_timeout_0
  44:.././hal//xmega/uart.c **** 	(
  45:.././hal//xmega/uart.c ****    char *					 	data,
  46:.././hal//xmega/uart.c ****    volatile unsigned int				timeout
  47:.././hal//xmega/uart.c ****    )
  48:.././hal//xmega/uart.c ****    {
  62               		.loc 1 48 4 is_stmt 1 view -0
  63               		.cfi_startproc
  64               		.loc 1 48 4 is_stmt 0 view .LVU12
  65 0028 CF93      		push r28
  66               	.LCFI0:
  67               		.cfi_def_cfa_offset 4
  68               		.cfi_offset 28, -3
  69 002a DF93      		push r29
  70               	.LCFI1:
  71               		.cfi_def_cfa_offset 5
  72               		.cfi_offset 29, -4
  73 002c 0F92      		push __tmp_reg__
  74 002e 0F92      		push __tmp_reg__
  75               	.LCFI2:
  76               		.cfi_def_cfa_offset 7
  77 0030 CDB7      		in r28,__SP_L__
  78 0032 DEB7      		in r29,__SP_H__
  79               	.LCFI3:
  80               		.cfi_def_cfa_register 28
  81               	/* prologue: function */
  82               	/* frame size = 2 */
  83               	/* stack size = 4 */
  84               	.L__stack_usage = 4
  85 0034 6983      		std Y+1,r22
  86 0036 7A83      		std Y+2,r23
  49:.././hal//xmega/uart.c ****    unsigned int				timeout_counter = 0;
  87               		.loc 1 49 4 is_stmt 1 view .LVU13
  88               	.LVL1:
  50:.././hal//xmega/uart.c **** 
  51:.././hal//xmega/uart.c ****    
  52:.././hal//xmega/uart.c ****    //check if a byte has been recieved or if the timeout has been excedded
  53:.././hal//xmega/uart.c ****    while (timeout_counter != timeout)
  89               		.loc 1 53 4 view .LVU14
  49:.././hal//xmega/uart.c ****    unsigned int				timeout_counter = 0;
  90               		.loc 1 49 20 is_stmt 0 view .LVU15
  91 0038 20E0      		ldi r18,0
  92 003a 30E0      		ldi r19,0
  93               	.LVL2:
  94               	.L3:
  95               		.loc 1 53 27 is_stmt 1 view .LVU16
  96 003c 4981      		ldd r20,Y+1
  97 003e 5A81      		ldd r21,Y+2
  98 0040 4217      		cp r20,r18
  99 0042 5307      		cpc r21,r19
 100 0044 01F4      		brne .L6
  54:.././hal//xmega/uart.c **** 		{	
  55:.././hal//xmega/uart.c **** 		if (USART_IsRXComplete(&USART))
  56:.././hal//xmega/uart.c **** 			{
  57:.././hal//xmega/uart.c **** 			*data = USART_GetChar(&USART);
  58:.././hal//xmega/uart.c **** 			return BYTE_REC;
  59:.././hal//xmega/uart.c **** 			}
  60:.././hal//xmega/uart.c **** 		timeout_counter++;
  61:.././hal//xmega/uart.c **** 		}
  62:.././hal//xmega/uart.c **** 		
  63:.././hal//xmega/uart.c **** 	return TIMEOUT;
 101               		.loc 1 63 9 is_stmt 0 view .LVU17
 102 0046 80E0      		ldi r24,0
 103               	.LVL3:
 104               		.loc 1 63 9 view .LVU18
 105 0048 00C0      		rjmp .L2
 106               	.LVL4:
 107               	.L6:
  55:.././hal//xmega/uart.c **** 			{
 108               		.loc 1 55 3 is_stmt 1 view .LVU19
  55:.././hal//xmega/uart.c **** 			{
 109               		.loc 1 55 7 is_stmt 0 view .LVU20
 110 004a 4091 A108 		lds r20,2209
  55:.././hal//xmega/uart.c **** 			{
 111               		.loc 1 55 6 view .LVU21
 112 004e 47FF      		sbrs r20,7
 113 0050 00C0      		rjmp .L4
  57:.././hal//xmega/uart.c **** 			return BYTE_REC;
 114               		.loc 1 57 4 is_stmt 1 view .LVU22
  57:.././hal//xmega/uart.c **** 			return BYTE_REC;
 115               		.loc 1 57 12 is_stmt 0 view .LVU23
 116 0052 2091 A008 		lds r18,2208
 117               	.LVL5:
  57:.././hal//xmega/uart.c **** 			return BYTE_REC;
 118               		.loc 1 57 10 view .LVU24
 119 0056 FC01      		movw r30,r24
 120 0058 2083      		st Z,r18
  58:.././hal//xmega/uart.c **** 			}
 121               		.loc 1 58 4 is_stmt 1 view .LVU25
  58:.././hal//xmega/uart.c **** 			}
 122               		.loc 1 58 11 is_stmt 0 view .LVU26
 123 005a 81E0      		ldi r24,lo8(1)
 124               	.LVL6:
 125               	.L2:
 126               	/* epilogue start */
  64:.././hal//xmega/uart.c **** 	}
 127               		.loc 1 64 2 view .LVU27
 128 005c 0F90      		pop __tmp_reg__
 129 005e 0F90      		pop __tmp_reg__
 130 0060 DF91      		pop r29
 131 0062 CF91      		pop r28
 132 0064 0895      		ret
 133               	.LVL7:
 134               	.L4:
  60:.././hal//xmega/uart.c **** 		}
 135               		.loc 1 60 3 is_stmt 1 view .LVU28
  60:.././hal//xmega/uart.c **** 		}
 136               		.loc 1 60 18 is_stmt 0 view .LVU29
 137 0066 2F5F      		subi r18,-1
 138 0068 3F4F      		sbci r19,-1
 139               	.LVL8:
  60:.././hal//xmega/uart.c **** 		}
 140               		.loc 1 60 18 view .LVU30
 141 006a 00C0      		rjmp .L3
 142               		.cfi_endproc
 143               	.LFE73:
 145               	.global	input_ch_0
 147               	input_ch_0:
 148               	.LFB74:
  65:.././hal//xmega/uart.c **** 		
  66:.././hal//xmega/uart.c **** char												input_ch_0
  67:.././hal//xmega/uart.c **** 	(
  68:.././hal//xmega/uart.c ****    void
  69:.././hal//xmega/uart.c ****    )
  70:.././hal//xmega/uart.c ****    {
 149               		.loc 1 70 4 is_stmt 1 view -0
 150               		.cfi_startproc
 151               	/* prologue: function */
 152               	/* frame size = 0 */
 153               	/* stack size = 0 */
 154               	.L__stack_usage = 0
 155               	.L8:
  71:.././hal//xmega/uart.c ****    //check if a byte has been recieved or if the timeout has been excedded
  72:.././hal//xmega/uart.c ****    while (!USART_IsRXComplete(&USART))
 156               		.loc 1 72 11 view .LVU32
 157               		.loc 1 72 12 is_stmt 0 view .LVU33
 158 006c 8091 A108 		lds r24,2209
 159               		.loc 1 72 11 view .LVU34
 160 0070 87FF      		sbrs r24,7
 161 0072 00C0      		rjmp .L8
  73:.././hal//xmega/uart.c **** 		{
  74:.././hal//xmega/uart.c **** 		continue;		
  75:.././hal//xmega/uart.c **** 		}		
  76:.././hal//xmega/uart.c **** 	return USART_GetChar(&USART);;
 162               		.loc 1 76 2 is_stmt 1 view .LVU35
 163               		.loc 1 76 9 is_stmt 0 view .LVU36
 164 0074 8091 A008 		lds r24,2208
 165               		.loc 1 76 31 is_stmt 1 discriminator 1 view .LVU37
 166               	/* epilogue start */
  77:.././hal//xmega/uart.c **** 	}
 167               		.loc 1 77 2 is_stmt 0 view .LVU38
 168 0078 0895      		ret
 169               		.cfi_endproc
 170               	.LFE74:
 172               	.global	output_ch_0
 174               	output_ch_0:
 175               	.LFB75:
  78:.././hal//xmega/uart.c **** 	
  79:.././hal//xmega/uart.c **** void												output_ch_0
  80:.././hal//xmega/uart.c **** 	(
  81:.././hal//xmega/uart.c **** 	char							data
  82:.././hal//xmega/uart.c **** 	)
  83:.././hal//xmega/uart.c **** 	{
 176               		.loc 1 83 2 is_stmt 1 view -0
 177               		.cfi_startproc
 178               	/* prologue: function */
 179               	/* frame size = 0 */
 180               	/* stack size = 0 */
 181               	.L__stack_usage = 0
 182               	.LVL9:
 183               	.L11:
  84:.././hal//xmega/uart.c **** 	while(!USART_IsTXDataRegisterEmpty(&USART));
 184               		.loc 1 84 8 discriminator 1 view .LVU40
 185               		.loc 1 84 9 is_stmt 0 discriminator 1 view .LVU41
 186 007a 9091 A108 		lds r25,2209
 187               		.loc 1 84 8 discriminator 1 view .LVU42
 188 007e 95FF      		sbrs r25,5
 189 0080 00C0      		rjmp .L11
  85:.././hal//xmega/uart.c **** 	USART_PutChar(&USART, data);
 190               		.loc 1 85 2 is_stmt 1 view .LVU43
 191 0082 8093 A008 		sts 2208,r24
  86:.././hal//xmega/uart.c **** 	return;
 192               		.loc 1 86 2 view .LVU44
 193               	/* epilogue start */
  87:.././hal//xmega/uart.c **** 	}...
 194               		.loc 1 87 2 is_stmt 0 view .LVU45
 195 0086 0895      		ret
 196               		.cfi_endproc
 197               	.LFE75:
 199               	.Letext0:
 200               		.file 2 "/usr/avr/include/stdint.h"
 201               		.file 3 "/usr/avr/include/avr/iox128d3.h"